target datalayout = "e-m:e-p270:32:32-p271:32:32-p272:64:64-i64:64-i128:128-f80:128-n8:16:32:64-S128"
target triple = "x86_64-pc-linux-gnu"

%struct.nstime_t = type { i64, i32 }
%struct._fd_hash_t = type { [16 x i8], i32, %struct.nstime_t }
%struct.ieee80211_radiotap_header = type { i8, i8, i16, i32 }

@skip_radiotap = internal global i8 0, align 1
@dup_window = internal global i32 5, align 4
@ignored_bytes = internal global i32 0, align 4
@fd_hash = internal global [1000000 x %struct._fd_hash_t] zeroinitializer, align 16
@cur_dup_entry = internal global i32 0, align 4

; Function Attrs: inlinehint nounwind null_pointer_is_valid sspstrong uwtable
define internal zeroext i16 @pletoh16(ptr noundef %0) #12 {
  %2 = alloca ptr, align 8
  store ptr %0, ptr %2, align 8
  %3 = load ptr, ptr %2, align 8
  %4 = getelementptr i8, ptr %3, i64 1
  %5 = load i8, ptr %4, align 1
  %6 = zext i8 %5 to i16
  %7 = zext i16 %6 to i32
  %8 = shl i32 %7, 8
  %9 = load ptr, ptr %2, align 8
  %10 = getelementptr i8, ptr %9, i64 0
  %11 = load i8, ptr %10, align 1
  %12 = zext i8 %11 to i16
  %13 = zext i16 %12 to i32
  %14 = shl i32 %13, 0
  %15 = or i32 %8, %14
  %16 = trunc i32 %15 to i16
  ret i16 %16
}

; Function Attrs: null_pointer_is_valid sspstrong uwtable
define internal zeroext i1 @is_duplicate(ptr noundef %0, i32 noundef %1) #0 {
  %3 = alloca i1, align 1
  %4 = alloca ptr, align 8
  %5 = alloca i32, align 4
  %6 = alloca i32, align 4
  %7 = alloca ptr, align 8
  %8 = alloca i32, align 4
  %9 = alloca i32, align 4
  %10 = alloca ptr, align 8
  %11 = alloca i32, align 4
  store ptr %0, ptr %4, align 8
  store i32 %1, ptr %5, align 4
  call void @llvm.lifetime.start.p0(i64 4, ptr %6) #14
  call void @llvm.lifetime.start.p0(i64 8, ptr %7) #14
  call void @llvm.lifetime.start.p0(i64 4, ptr %8) #14
  %12 = load i32, ptr @ignored_bytes, align 4
  store i32 %12, ptr %8, align 4
  call void @llvm.lifetime.start.p0(i64 4, ptr %9) #14
  call void @llvm.lifetime.start.p0(i64 8, ptr %10) #14
  %13 = load i32, ptr %5, align 4
  %14 = load i32, ptr @ignored_bytes, align 4
  %15 = icmp ule i32 %13, %14
  br i1 %15, label %16, label %17

16:                                               ; preds = %2
  store i32 0, ptr %8, align 4
  br label %17

17:                                               ; preds = %16, %2
  %18 = load i8, ptr @skip_radiotap, align 1, !range !7, !noundef !8
  %19 = trunc i8 %18 to i1
  %20 = zext i1 %19 to i32
  %21 = icmp eq i32 %20, 1
  br i1 %21, label %22, label %33

22:                                               ; preds = %17
  %23 = load ptr, ptr %4, align 8
  store ptr %23, ptr %7, align 8
  %24 = load ptr, ptr %7, align 8
  %25 = getelementptr inbounds nuw %struct.ieee80211_radiotap_header, ptr %24, i32 0, i32 2
  %26 = call zeroext i16 @pletoh16(ptr noundef %25)
  %27 = zext i16 %26 to i32
  store i32 %27, ptr %8, align 4
  %28 = load i32, ptr %8, align 4
  %29 = load i32, ptr %5, align 4
  %30 = icmp uge i32 %28, %29
  br i1 %30, label %31, label %32

31:                                               ; preds = %22
  store i32 0, ptr %8, align 4
  br label %32

32:                                               ; preds = %31, %22
  br label %33

33:                                               ; preds = %32, %17
  %34 = load ptr, ptr %4, align 8
  %35 = load i32, ptr %8, align 4
  %36 = zext i32 %35 to i64
  %37 = getelementptr i8, ptr %34, i64 %36
  store ptr %37, ptr %10, align 8
  %38 = load i32, ptr %5, align 4
  %39 = load i32, ptr %8, align 4
  %40 = sub i32 %38, %39
  store i32 %40, ptr %9, align 4
  %41 = load i32, ptr @cur_dup_entry, align 4
  %42 = add i32 %41, 1
  store i32 %42, ptr @cur_dup_entry, align 4
  %43 = load i32, ptr @cur_dup_entry, align 4
  %44 = load i32, ptr @dup_window, align 4
  %45 = icmp sge i32 %43, %44
  br i1 %45, label %46, label %47

46:                                               ; preds = %33
  store i32 0, ptr @cur_dup_entry, align 4
  br label %47

47:                                               ; preds = %46, %33
  %48 = load i32, ptr @cur_dup_entry, align 4
  %49 = sext i32 %48 to i64
  %50 = getelementptr [1000000 x %struct._fd_hash_t], ptr @fd_hash, i64 0, i64 %49
  %51 = getelementptr inbounds nuw %struct._fd_hash_t, ptr %50, i32 0, i32 0
  %52 = getelementptr inbounds [16 x i8], ptr %51, i64 0, i64 0
  %53 = load ptr, ptr %10, align 8
  %54 = load i32, ptr %9, align 4
  %55 = zext i32 %54 to i64
  call void @gcry_md_hash_buffer(i32 noundef 1, ptr noundef %52, ptr noundef %53, i64 noundef %55)
  %56 = load i32, ptr %5, align 4
  %57 = load i32, ptr @cur_dup_entry, align 4
  %58 = sext i32 %57 to i64
  %59 = getelementptr [1000000 x %struct._fd_hash_t], ptr @fd_hash, i64 0, i64 %58
  %60 = getelementptr inbounds nuw %struct._fd_hash_t, ptr %59, i32 0, i32 1
  store i32 %56, ptr %60, align 8
  store i32 0, ptr %6, align 4
  br label %61

61:                                               ; preds = %97, %47
  %62 = load i32, ptr %6, align 4
  %63 = load i32, ptr @dup_window, align 4
  %64 = icmp slt i32 %62, %63
  br i1 %64, label %65, label %100

65:                                               ; preds = %61
  %66 = load i32, ptr %6, align 4
  %67 = load i32, ptr @cur_dup_entry, align 4
  %68 = icmp eq i32 %66, %67
  br i1 %68, label %69, label %70

69:                                               ; preds = %65
  br label %97

70:                                               ; preds = %65
  %71 = load i32, ptr %6, align 4
  %72 = sext i32 %71 to i64
  %73 = getelementptr [1000000 x %struct._fd_hash_t], ptr @fd_hash, i64 0, i64 %72
  %74 = getelementptr inbounds nuw %struct._fd_hash_t, ptr %73, i32 0, i32 1
  %75 = load i32, ptr %74, align 8
  %76 = load i32, ptr @cur_dup_entry, align 4
  %77 = sext i32 %76 to i64
  %78 = getelementptr [1000000 x %struct._fd_hash_t], ptr @fd_hash, i64 0, i64 %77
  %79 = getelementptr inbounds nuw %struct._fd_hash_t, ptr %78, i32 0, i32 1
  %80 = load i32, ptr %79, align 8
  %81 = icmp eq i32 %75, %80
  br i1 %81, label %82, label %96

82:                                               ; preds = %70
  %83 = load i32, ptr %6, align 4
  %84 = sext i32 %83 to i64
  %85 = getelementptr [1000000 x %struct._fd_hash_t], ptr @fd_hash, i64 0, i64 %84
  %86 = getelementptr inbounds nuw %struct._fd_hash_t, ptr %85, i32 0, i32 0
  %87 = getelementptr inbounds [16 x i8], ptr %86, i64 0, i64 0
  %88 = load i32, ptr @cur_dup_entry, align 4
  %89 = sext i32 %88 to i64
  %90 = getelementptr [1000000 x %struct._fd_hash_t], ptr @fd_hash, i64 0, i64 %89
  %91 = getelementptr inbounds nuw %struct._fd_hash_t, ptr %90, i32 0, i32 0
  %92 = getelementptr inbounds [16 x i8], ptr %91, i64 0, i64 0
  %93 = call i32 @memcmp(ptr noundef %87, ptr noundef %92, i64 noundef 16) #15
  %94 = icmp eq i32 %93, 0
  br i1 %94, label %95, label %96

95:                                               ; preds = %82
  store i1 true, ptr %3, align 1
  store i32 1, ptr %11, align 4
  br label %101

96:                                               ; preds = %82, %70
  br label %97

97:                                               ; preds = %96, %69
  %98 = load i32, ptr %6, align 4
  %99 = add i32 %98, 1
  store i32 %99, ptr %6, align 4
  br label %61, !llvm.loop !44

100:                                              ; preds = %61
  store i1 false, ptr %3, align 1
  store i32 1, ptr %11, align 4
  br label %101

101:                                              ; preds = %100, %95
  call void @llvm.lifetime.end.p0(i64 8, ptr %10) #14
  call void @llvm.lifetime.end.p0(i64 4, ptr %9) #14
  call void @llvm.lifetime.end.p0(i64 4, ptr %8) #14
  call void @llvm.lifetime.end.p0(i64 8, ptr %7) #14
  call void @llvm.lifetime.end.p0(i64 4, ptr %6) #14
  %102 = load i1, ptr %3, align 1
  ret i1 %102
}