; Function Attrs: null_pointer_is_valid sspstrong uwtable
define internal fastcc noundef zeroext i1 @is_duplicate(ptr noundef %0, i32 noundef %1) unnamed_addr #0 {
  %3 = load i32, ptr @ignored_bytes, align 4
  %.not = icmp ugt i32 %1, %3
  %spec.select = select i1 %.not, i32 %3, i32 0
  %.b22 = load i1, ptr @skip_radiotap, align 1
  br i1 %.b22, label %4, label %11

4:                                                ; preds = %2
  %5 = getelementptr inbounds nuw i8, ptr %0, i64 2
  %.val = load i8, ptr %5, align 1
  %6 = getelementptr i8, ptr %0, i64 3
  %.val25 = load i8, ptr %6, align 1
  %7 = zext i8 %.val25 to i32
  %8 = shl nuw nsw i32 %7, 8
  %9 = zext i8 %.val to i32
  %10 = or disjoint i32 %8, %9
  %.not23 = icmp ugt i32 %1, %10
  %spec.store.select = select i1 %.not23, i32 %10, i32 0
  br label %11

11:                                               ; preds = %4, %2
  %.1 = phi i32 [ %spec.store.select, %4 ], [ %spec.select, %2 ]
  %12 = zext i32 %.1 to i64
  %13 = getelementptr i8, ptr %0, i64 %12
  %14 = sub i32 %1, %.1
  %15 = load i32, ptr @cur_dup_entry, align 4
  %16 = add i32 %15, 1
  %17 = load i32, ptr @dup_window, align 4
  %.not24 = icmp slt i32 %16, %17
  %spec.store.select1 = select i1 %.not24, i32 %16, i32 0
  store i32 %spec.store.select1, ptr @cur_dup_entry, align 4
  %18 = sext i32 %spec.store.select1 to i64
  %19 = getelementptr [1000000 x %struct._fd_hash_t], ptr @fd_hash, i64 0, i64 %18
  %20 = zext i32 %14 to i64
  tail call void @gcry_md_hash_buffer(i32 noundef 1, ptr noundef %19, ptr noundef %13, i64 noundef %20)
  %21 = load i32, ptr @cur_dup_entry, align 4
  %22 = sext i32 %21 to i64
  %23 = getelementptr [1000000 x %struct._fd_hash_t], ptr @fd_hash, i64 0, i64 %22, i32 1
  store i32 %1, ptr %23, align 8
  %24 = load i32, ptr @dup_window, align 4
  %25 = icmp sgt i32 %24, 0
  br i1 %25, label %.lr.ph, label %._crit_edge

.lr.ph:                                           ; preds = %11
  %26 = getelementptr [1000000 x %struct._fd_hash_t], ptr @fd_hash, i64 0, i64 %22
  %27 = zext i32 %21 to i64
  %wide.trip.count = zext nneg i32 %24 to i64
  br label %28

28:                                               ; preds = %.lr.ph, %37
  %indvars.iv = phi i64 [ 0, %.lr.ph ], [ %indvars.iv.next, %37 ]
  %29 = icmp eq i64 %indvars.iv, %27
  br i1 %29, label %37, label %30

30:                                               ; preds = %28
  %31 = getelementptr [1000000 x %struct._fd_hash_t], ptr @fd_hash, i64 0, i64 %indvars.iv
  %32 = getelementptr inbounds nuw i8, ptr %31, i64 16
  %33 = load i32, ptr %32, align 8
  %34 = icmp eq i32 %33, %1
  br i1 %34, label %35, label %37

35:                                               ; preds = %30
  %bcmp = tail call i32 @bcmp(ptr noundef dereferenceable(16) %31, ptr noundef dereferenceable(16) %26, i64 16)
  %36 = icmp eq i32 %bcmp, 0
  br i1 %36, label %._crit_edge, label %37

37:                                               ; preds = %30, %35, %28
  %indvars.iv.next = add nuw nsw i64 %indvars.iv, 1
  %exitcond.not = icmp eq i64 %indvars.iv.next, %wide.trip.count
  br i1 %exitcond.not, label %._crit_edge, label %28, !llvm.loop !44

._crit_edge:                                      ; preds = %35, %37, %11
  %.lcssa = phi i1 [ false, %11 ], [ false, %37 ], [ true, %35 ]
  ret i1 %.lcssa
}